target datalayout = "e-m:e-p270:32:32-p271:32:32-p272:64:64-i64:64-i128:128-f80:128-n8:16:32:64-S128"
target triple = "x86_64-pc-linux-gnu"

@hf_hnd = internal global i32 0, align 4
@hf_servername = internal global i32 0, align 4
@hf_rffpcnex_options = internal global i32 0, align 4
@hf_printerlocal = internal global i32 0, align 4
@hf_rffpcnex_flags = internal global i32 0, align 4
@ett_rffpcnex_flags = internal global i32 0, align 4
@.str.1239 = private unnamed_addr constant [7 x i8] c"Server\00", align 1
@.str.1240 = private unnamed_addr constant [25 x i8] c"Notify Options Container\00", align 1

; Function Attrs: nounwind uwtable
define internal i32 @SpoolssRFFPCNEX_q(ptr noundef %0, i32 noundef %1, ptr noundef %2, ptr noundef %3, ptr noundef %4, ptr noundef %5) #0 {
  %7 = alloca ptr, align 8
  %8 = alloca i32, align 4
  %9 = alloca ptr, align 8
  %10 = alloca ptr, align 8
  %11 = alloca ptr, align 8
  %12 = alloca ptr, align 8
  %13 = alloca i32, align 4
  store ptr %0, ptr %7, align 8
  store i32 %1, ptr %8, align 4
  store ptr %2, ptr %9, align 8
  store ptr %3, ptr %10, align 8
  store ptr %4, ptr %11, align 8
  store ptr %5, ptr %12, align 8
  %14 = load ptr, ptr %7, align 8
  %15 = load i32, ptr %8, align 4
  %16 = load ptr, ptr %9, align 8
  %17 = load ptr, ptr %10, align 8
  %18 = load ptr, ptr %11, align 8
  %19 = load ptr, ptr %12, align 8
  %20 = load i32, ptr @hf_hnd, align 4
  %21 = call i32 @dissect_nt_policy_hnd(ptr noundef %14, i32 noundef %15, ptr noundef %16, ptr noundef %17, ptr noundef %18, ptr noundef %19, i32 noundef %20, ptr noundef null, ptr noundef null, i32 noundef 0, i32 noundef 0)
  store i32 %21, ptr %8, align 4
  %22 = load ptr, ptr %7, align 8
  %23 = load i32, ptr %8, align 4
  %24 = load ptr, ptr %9, align 8
  %25 = load ptr, ptr %11, align 8
  %26 = load ptr, ptr %12, align 8
  %27 = call i32 @dissect_ndr_uint32(ptr noundef %22, i32 noundef %23, ptr noundef %24, ptr noundef null, ptr noundef %25, ptr noundef %26, i32 noundef -1, ptr noundef %13)
  store i32 %27, ptr %8, align 4
  %28 = load ptr, ptr %10, align 8
  %29 = load ptr, ptr %7, align 8
  %30 = load i32, ptr %8, align 4
  %31 = sub i32 %30, 4
  %32 = load i32, ptr @hf_rffpcnex_flags, align 4
  %33 = load i32, ptr @ett_rffpcnex_flags, align 4
  %34 = load i32, ptr %13, align 4
  %35 = zext i32 %34 to i64
  %36 = call ptr @proto_tree_add_bitmask_value(ptr noundef %28, ptr noundef %29, i32 noundef %31, i32 noundef %32, i32 noundef %33, ptr noundef @SpoolssRFFPCNEX_q.hf_flags, i64 noundef %35)
  %37 = load ptr, ptr %7, align 8
  %38 = load i32, ptr %8, align 4
  %39 = load ptr, ptr %9, align 8
  %40 = load ptr, ptr %10, align 8
  %41 = load ptr, ptr %11, align 8
  %42 = load ptr, ptr %12, align 8
  %43 = load i32, ptr @hf_rffpcnex_options, align 4
  %44 = call i32 @dissect_ndr_uint32(ptr noundef %37, i32 noundef %38, ptr noundef %39, ptr noundef %40, ptr noundef %41, ptr noundef %42, i32 noundef %43, ptr noundef null)
  store i32 %44, ptr %8, align 4
  %45 = load ptr, ptr %7, align 8
  %46 = load i32, ptr %8, align 4
  %47 = load ptr, ptr %9, align 8
  %48 = load ptr, ptr %10, align 8
  %49 = load ptr, ptr %11, align 8
  %50 = load ptr, ptr %12, align 8
  %51 = load i32, ptr @hf_servername, align 4
  %52 = call i32 @dissect_ndr_str_pointer_item(ptr noundef %45, i32 noundef %46, ptr noundef %47, ptr noundef %48, ptr noundef %49, ptr noundef %50, i32 noundef 2, ptr noundef @.str.1239, i32 noundef %51, i32 noundef 0)
  store i32 %52, ptr %8, align 4
  %53 = load ptr, ptr %7, align 8
  %54 = load i32, ptr %8, align 4
  %55 = load ptr, ptr %9, align 8
  %56 = load ptr, ptr %10, align 8
  %57 = load ptr, ptr %11, align 8
  %58 = load ptr, ptr %12, align 8
  %59 = load i32, ptr @hf_printerlocal, align 4
  %60 = call i32 @dissect_ndr_uint32(ptr noundef %53, i32 noundef %54, ptr noundef %55, ptr noundef %56, ptr noundef %57, ptr noundef %58, i32 noundef %59, ptr noundef null)
  store i32 %60, ptr %8, align 4
  %61 = load ptr, ptr %7, align 8
  %62 = load i32, ptr %8, align 4
  %63 = load ptr, ptr %9, align 8
  %64 = load ptr, ptr %10, align 8
  %65 = load ptr, ptr %11, align 8
  %66 = load ptr, ptr %12, align 8
  %67 = call i32 @dissect_ndr_pointer(ptr noundef %61, i32 noundef %62, ptr noundef %63, ptr noundef %64, ptr noundef %65, ptr noundef %66, ptr noundef @dissect_NOTIFY_OPTIONS_ARRAY_CTR, i32 noundef 2, ptr noundef @.str.1240, i32 noundef -1)
  store i32 %67, ptr %8, align 4
  %68 = load i32, ptr %8, align 4
  ret i32 %68
}