; Function Attrs: nounwind uwtable
define internal i32 @SpoolssRFFPCNEX_q(ptr noundef %0, i32 noundef %1, ptr noundef %2, ptr noundef %3, ptr noundef %4, ptr noundef %5) #0 {
  %7 = alloca i32, align 4
  %8 = load i32, ptr @hf_hnd, align 4
  %9 = tail call i32 @dissect_nt_policy_hnd(ptr noundef %0, i32 noundef %1, ptr noundef %2, ptr noundef %3, ptr noundef %4, ptr noundef %5, i32 noundef %8, ptr noundef null, ptr noundef null, i32 noundef 0, i32 noundef 0) #5
  %10 = call i32 @dissect_ndr_uint32(ptr noundef %0, i32 noundef %9, ptr noundef %2, ptr noundef null, ptr noundef %4, ptr noundef %5, i32 noundef -1, ptr noundef nonnull %7) #5
  %11 = add i32 %10, -4
  %12 = load i32, ptr @hf_rffpcnex_flags, align 4
  %13 = load i32, ptr @ett_rffpcnex_flags, align 4
  %14 = load i32, ptr %7, align 4
  %15 = zext i32 %14 to i64
  %16 = call ptr @proto_tree_add_bitmask_value(ptr noundef %3, ptr noundef %0, i32 noundef %11, i32 noundef %12, i32 noundef %13, ptr noundef nonnull @SpoolssRFFPCNEX_q.hf_flags, i64 noundef %15) #5
  %17 = load i32, ptr @hf_rffpcnex_options, align 4
  %18 = call i32 @dissect_ndr_uint32(ptr noundef %0, i32 noundef %10, ptr noundef %2, ptr noundef %3, ptr noundef %4, ptr noundef %5, i32 noundef %17, ptr noundef null) #5
  %19 = load i32, ptr @hf_servername, align 4
  %20 = call i32 @dissect_ndr_str_pointer_item(ptr noundef %0, i32 noundef %18, ptr noundef %2, ptr noundef %3, ptr noundef %4, ptr noundef %5, i32 noundef 2, ptr noundef nonnull @.str.1239, i32 noundef %19, i32 noundef 0) #5
  %21 = load i32, ptr @hf_printerlocal, align 4
  %22 = call i32 @dissect_ndr_uint32(ptr noundef %0, i32 noundef %20, ptr noundef %2, ptr noundef %3, ptr noundef %4, ptr noundef %5, i32 noundef %21, ptr noundef null) #5
  %23 = call i32 @dissect_ndr_pointer(ptr noundef %0, i32 noundef %22, ptr noundef %2, ptr noundef %3, ptr noundef %4, ptr noundef %5, ptr noundef nonnull @dissect_NOTIFY_OPTIONS_ARRAY_CTR, i32 noundef 2, ptr noundef nonnull @.str.1240, i32 noundef -1) #5
  ret i32 %23
}